target datalayout = "e-m:e-p270:32:32-p271:32:32-p272:64:64-i64:64-i128:128-f80:128-n8:16:32:64-S128"
target triple = "x86_64-pc-linux-gnu"

%struct.zskiplistNode = type { ptr, double, ptr, [0 x %struct.zskiplistLevel] }
%struct.zskiplistLevel = type { ptr, i64 }
%struct.zskiplist = type { ptr, ptr, i64, i32 }

; Function Attrs: nounwind uwtable
define dso_local void @zslFreeNode(ptr noundef %0) #0 {
  %2 = alloca ptr, align 8
  store ptr %0, ptr %2, align 8, !tbaa !14
  %3 = load ptr, ptr %2, align 8, !tbaa !14
  %4 = getelementptr inbounds nuw %struct.zskiplistNode, ptr %3, i32 0, i32 0
  %5 = load ptr, ptr %4, align 8, !tbaa !11
  call void @sdsfree(ptr noundef %5)
  %6 = load ptr, ptr %2, align 8, !tbaa !14
  call void @zfree(ptr noundef %6)
  ret void
}

; Function Attrs: nounwind uwtable
define dso_local void @zslFree(ptr noundef %0) #0 {
  %2 = alloca ptr, align 8
  %3 = alloca ptr, align 8
  %4 = alloca ptr, align 8
  store ptr %0, ptr %2, align 8, !tbaa !16
  call void @llvm.lifetime.start.p0(i64 8, ptr %3) #12
  %5 = load ptr, ptr %2, align 8, !tbaa !16
  %6 = getelementptr inbounds nuw %struct.zskiplist, ptr %5, i32 0, i32 0
  %7 = load ptr, ptr %6, align 8, !tbaa !22
  %8 = getelementptr inbounds nuw %struct.zskiplistNode, ptr %7, i32 0, i32 3
  %9 = getelementptr inbounds [0 x %struct.zskiplistLevel], ptr %8, i64 0, i64 0
  %10 = getelementptr inbounds nuw %struct.zskiplistLevel, ptr %9, i32 0, i32 0
  %11 = load ptr, ptr %10, align 8, !tbaa !23
  store ptr %11, ptr %3, align 8, !tbaa !14
  call void @llvm.lifetime.start.p0(i64 8, ptr %4) #12
  %12 = load ptr, ptr %2, align 8, !tbaa !16
  %13 = getelementptr inbounds nuw %struct.zskiplist, ptr %12, i32 0, i32 0
  %14 = load ptr, ptr %13, align 8, !tbaa !22
  call void @zfree(ptr noundef %14)
  br label %15

15:                                               ; preds = %18, %1
  %16 = load ptr, ptr %3, align 8, !tbaa !14
  %17 = icmp ne ptr %16, null
  br i1 %17, label %18, label %26

18:                                               ; preds = %15
  %19 = load ptr, ptr %3, align 8, !tbaa !14
  %20 = getelementptr inbounds nuw %struct.zskiplistNode, ptr %19, i32 0, i32 3
  %21 = getelementptr inbounds [0 x %struct.zskiplistLevel], ptr %20, i64 0, i64 0
  %22 = getelementptr inbounds nuw %struct.zskiplistLevel, ptr %21, i32 0, i32 0
  %23 = load ptr, ptr %22, align 8, !tbaa !23
  store ptr %23, ptr %4, align 8, !tbaa !14
  %24 = load ptr, ptr %3, align 8, !tbaa !14
  call void @zslFreeNode(ptr noundef %24)
  %25 = load ptr, ptr %4, align 8, !tbaa !14
  store ptr %25, ptr %3, align 8, !tbaa !14
  br label %15, !llvm.loop !29

26:                                               ; preds = %15
  %27 = load ptr, ptr %2, align 8, !tbaa !16
  call void @zfree(ptr noundef %27)
  call void @llvm.lifetime.end.p0(i64 8, ptr %4) #12
  call void @llvm.lifetime.end.p0(i64 8, ptr %3) #12
  ret void
}