; Function Attrs: nounwind uwtable
define dso_local void @zslFree(ptr noundef %0) local_unnamed_addr #0 {
  %2 = load ptr, ptr %0, align 8, !tbaa !18
  %3 = getelementptr inbounds nuw i8, ptr %2, i64 24
  %4 = load ptr, ptr %3, align 8, !tbaa !20
  tail call void @zfree(ptr noundef %2) #18
  %.not7 = icmp eq ptr %4, null
  br i1 %.not7, label %._crit_edge, label %.lr.ph

.lr.ph:                                           ; preds = %1, %.lr.ph
  %.08 = phi ptr [ %6, %.lr.ph ], [ %4, %1 ]
  %5 = getelementptr inbounds nuw i8, ptr %.08, i64 24
  %6 = load ptr, ptr %5, align 8, !tbaa !20
  %7 = load ptr, ptr %.08, align 8, !tbaa !9
  tail call void @sdsfree(ptr noundef %7) #18
  tail call void @zfree(ptr noundef nonnull %.08) #18
  %.not = icmp eq ptr %6, null
  br i1 %.not, label %._crit_edge, label %.lr.ph, !llvm.loop !22

._crit_edge:                                      ; preds = %.lr.ph, %1
  tail call void @zfree(ptr noundef nonnull %0) #18
  ret void
}